; Function Attrs: nounwind uwtable
define internal ptr @kdf_pvk_dup(ptr noundef %0) #0 {
  %2 = load ptr, ptr %0, align 8, !tbaa !3
  %3 = tail call ptr @kdf_pvk_new(ptr noundef %2)
  %.not = icmp eq ptr %3, null
  br i1 %.not, label %30, label %4

4:                                                ; preds = %1
  %5 = getelementptr inbounds nuw i8, ptr %0, i64 24
  %6 = load ptr, ptr %5, align 8, !tbaa !13
  %7 = getelementptr inbounds nuw i8, ptr %0, i64 32
  %8 = load i64, ptr %7, align 8, !tbaa !14
  %9 = getelementptr inbounds nuw i8, ptr %3, i64 24
  %10 = getelementptr inbounds nuw i8, ptr %3, i64 32
  %11 = tail call i32 @ossl_prov_memdup(ptr noundef %6, i64 noundef %8, ptr noundef nonnull %9, ptr noundef nonnull %10) #5
  %.not17 = icmp eq i32 %11, 0
  br i1 %.not17, label %kdf_pvk_free.exit, label %12

12:                                               ; preds = %4
  %13 = getelementptr inbounds nuw i8, ptr %0, i64 8
  %14 = load ptr, ptr %13, align 8, !tbaa !15
  %15 = getelementptr inbounds nuw i8, ptr %0, i64 16
  %16 = load i64, ptr %15, align 8, !tbaa !16
  %17 = getelementptr inbounds nuw i8, ptr %3, i64 8
  %18 = getelementptr inbounds nuw i8, ptr %3, i64 16
  %19 = tail call i32 @ossl_prov_memdup(ptr noundef %14, i64 noundef %16, ptr noundef nonnull %17, ptr noundef nonnull %18) #5
  %.not18 = icmp eq i32 %19, 0
  br i1 %.not18, label %kdf_pvk_free.exit, label %20

20:                                               ; preds = %12
  %21 = getelementptr inbounds nuw i8, ptr %3, i64 40
  %22 = getelementptr inbounds nuw i8, ptr %0, i64 40
  %23 = tail call i32 @ossl_prov_digest_copy(ptr noundef nonnull %21, ptr noundef nonnull %22) #5
  %.not19 = icmp eq i32 %23, 0
  br i1 %.not19, label %kdf_pvk_free.exit, label %30

kdf_pvk_free.exit:                                ; preds = %4, %12, %20
  %24 = getelementptr inbounds nuw i8, ptr %3, i64 40
  tail call void @ossl_prov_digest_reset(ptr noundef nonnull %24) #5
  %25 = load ptr, ptr %9, align 8, !tbaa !13
  tail call void @CRYPTO_free(ptr noundef %25, ptr noundef nonnull @.str, i32 noundef 59) #5
  %26 = getelementptr inbounds nuw i8, ptr %3, i64 8
  %27 = load ptr, ptr %26, align 8, !tbaa !15
  %28 = getelementptr inbounds nuw i8, ptr %3, i64 16
  %29 = load i64, ptr %28, align 8, !tbaa !16
  tail call void @CRYPTO_clear_free(ptr noundef %27, i64 noundef %29, ptr noundef nonnull @.str, i32 noundef 60) #5
  tail call void @OPENSSL_cleanse(ptr noundef nonnull %3, i64 noundef 64) #5
  tail call void @CRYPTO_free(ptr noundef nonnull %3, ptr noundef nonnull @.str, i32 noundef 70) #5
  br label %30

30:                                               ; preds = %1, %20, %kdf_pvk_free.exit
  %.0 = phi ptr [ null, %kdf_pvk_free.exit ], [ %3, %20 ], [ null, %1 ]
  ret ptr %.0
}